; Function Attrs: mustprogress uwtable
define void @_Z12write_conf_pRKNSt10filesystem7__cxx114pathEPKcPK7t_atomsPA3_KfSB_SB_(ptr noundef nonnull align 8 dereferenceable(40) %0, ptr noundef %1, ptr noundef readonly captures(none) %2, ptr noundef readonly captures(none) %3, ptr noundef %4, ptr noundef readonly captures(none) %5) local_unnamed_addr #0 {
  %7 = tail call noundef ptr @_Z13gmx_fio_fopenRKNSt10filesystem7__cxx114pathEPKc(ptr noundef nonnull align 8 dereferenceable(40) %0, ptr noundef nonnull @.str.42)
  %8 = load i32, ptr %2, align 8, !tbaa !21
  %9 = sext i32 %8 to i64
  %10 = tail call noundef ptr @_Z11save_callocPKcS0_imm(ptr noundef nonnull @.str.41, ptr noundef nonnull @.str.2, i32 noundef 580, i64 noundef range(i64 -2147483648, 2147483648) %9, i64 noundef 4)
  %11 = load i32, ptr %2, align 8, !tbaa !21
  %12 = icmp sgt i32 %11, 0
  br i1 %12, label %.lr.ph.i, label %_Z13write_hconf_pP8_IO_FILEPKcPK7t_atomsPA3_KfS8_S8_.exit

.lr.ph.i:                                         ; preds = %6, %.lr.ph.i
  %indvars.iv.i = phi i64 [ %indvars.iv.next.i, %.lr.ph.i ], [ 0, %6 ]
  %13 = getelementptr inbounds nuw i32, ptr %10, i64 %indvars.iv.i
  %14 = trunc nuw nsw i64 %indvars.iv.i to i32
  store i32 %14, ptr %13, align 4, !tbaa !19
  %indvars.iv.next.i = add nuw nsw i64 %indvars.iv.i, 1
  %15 = load i32, ptr %2, align 8, !tbaa !21
  %16 = sext i32 %15 to i64
  %17 = icmp slt i64 %indvars.iv.next.i, %16
  br i1 %17, label %.lr.ph.i, label %_Z13write_hconf_pP8_IO_FILEPKcPK7t_atomsPA3_KfS8_S8_.exit, !llvm.loop !140

_Z13write_hconf_pP8_IO_FILEPKcPK7t_atomsPA3_KfS8_S8_.exit: ; preds = %.lr.ph.i, %6
  %.lcssa.i = phi i32 [ %11, %6 ], [ %15, %.lr.ph.i ]
  tail call void @_Z21write_hconf_indexed_pP8_IO_FILEPKcPK7t_atomsiPKiPA3_KfSA_SA_(ptr noundef %7, ptr noundef %1, ptr noundef nonnull readonly %2, i32 noundef %.lcssa.i, ptr noundef %10, ptr noundef readonly %3, ptr noundef %4, ptr noundef readonly %5)
  tail call void @_Z9save_freePKcS0_iPv(ptr noundef nonnull @.str.41, ptr noundef nonnull @.str.2, i32 noundef 586, ptr noundef %10)
  %18 = tail call noundef i32 @_Z14gmx_fio_fcloseP8_IO_FILE(ptr noundef %7)
  ret void
}